target datalayout = "e-m:e-p270:32:32-p271:32:32-p272:64:64-i64:64-i128:128-f80:128-n8:16:32:64-S128"
target triple = "x86_64-unknown-linux-gnu"

%struct.DBusDisplay = type { %struct.Object, i32, i8, ptr, ptr, %struct.DisplayGLCtx, ptr, ptr, ptr, ptr, ptr, %struct.QemuClipboardPeer, ptr, ptr, [3 x %struct.DBusClipboardRequest], %struct.Notifier }
%struct.Object = type { ptr, ptr, ptr, i32, ptr }
%struct.DisplayGLCtx = type { ptr }
%struct.QemuClipboardPeer = type { ptr, %struct.Notifier, ptr }
%struct.DBusClipboardRequest = type { ptr, i32, i32 }
%struct.Notifier = type { ptr, %struct.anon.0 }
%struct.anon.0 = type { ptr, ptr }
%struct._GError = type { i32, i32, ptr }

@dbus_display = internal global ptr null, align 8
@.str = private unnamed_addr constant [18 x i8] c"../qemu/ui/dbus.c\00", align 1
@__func__.dbus_display_add_client = private unnamed_addr constant [24 x i8] c"dbus_display_add_client\00", align 1
@.str.1 = private unnamed_addr constant [41 x i8] c"p2p connections not accepted in bus mode\00", align 1
@.str.2 = private unnamed_addr constant [33 x i8] c"Failed to setup D-Bus socket: %s\00", align 1

; Function Attrs: nounwind sspstrong uwtable
define internal void @glib_autoptr_clear_GError(ptr noundef %_ptr) #0 {
entry:
  %_ptr.addr = alloca ptr, align 8
  store ptr %_ptr, ptr %_ptr.addr, align 8
  %0 = load ptr, ptr %_ptr.addr, align 8
  %tobool = icmp ne ptr %0, null
  br i1 %tobool, label %if.then, label %if.end

if.then:                                          ; preds = %entry
  %1 = load ptr, ptr %_ptr.addr, align 8
  call void @g_error_free(ptr noundef %1)
  br label %if.end

if.end:                                           ; preds = %if.then, %entry
  ret void
}

; Function Attrs: nounwind sspstrong uwtable
define internal void @glib_autoptr_clear_GSocket(ptr noundef %_ptr) #0 {
entry:
  %_ptr.addr = alloca ptr, align 8
  store ptr %_ptr, ptr %_ptr.addr, align 8
  %0 = load ptr, ptr %_ptr.addr, align 8
  %tobool = icmp ne ptr %0, null
  br i1 %tobool, label %if.then, label %if.end

if.then:                                          ; preds = %entry
  %1 = load ptr, ptr %_ptr.addr, align 8
  call void @g_object_unref(ptr noundef %1)
  br label %if.end

if.end:                                           ; preds = %if.then, %entry
  ret void
}

; Function Attrs: nounwind sspstrong uwtable
define internal void @glib_autoptr_clear_GSocketConnection(ptr noundef %_ptr) #0 {
entry:
  %_ptr.addr = alloca ptr, align 8
  store ptr %_ptr, ptr %_ptr.addr, align 8
  %0 = load ptr, ptr %_ptr.addr, align 8
  %tobool = icmp ne ptr %0, null
  br i1 %tobool, label %if.then, label %if.end

if.then:                                          ; preds = %entry
  %1 = load ptr, ptr %_ptr.addr, align 8
  call void @g_object_unref(ptr noundef %1)
  br label %if.end

if.end:                                           ; preds = %if.then, %entry
  ret void
}

; Function Attrs: nounwind sspstrong uwtable
define internal void @glib_autoptr_cleanup_GError(ptr noundef %_ptr) #0 {
entry:
  %_ptr.addr = alloca ptr, align 8
  store ptr %_ptr, ptr %_ptr.addr, align 8
  %0 = load ptr, ptr %_ptr.addr, align 8
  %1 = load ptr, ptr %0, align 8
  call void @glib_autoptr_clear_GError(ptr noundef %1)
  ret void
}

; Function Attrs: nounwind sspstrong uwtable
define internal void @glib_autoptr_cleanup_GSocket(ptr noundef %_ptr) #0 {
entry:
  %_ptr.addr = alloca ptr, align 8
  store ptr %_ptr, ptr %_ptr.addr, align 8
  %0 = load ptr, ptr %_ptr.addr, align 8
  %1 = load ptr, ptr %0, align 8
  call void @glib_autoptr_clear_GSocket(ptr noundef %1)
  ret void
}

; Function Attrs: nounwind sspstrong uwtable
define internal void @glib_autoptr_cleanup_GSocketConnection(ptr noundef %_ptr) #0 {
entry:
  %_ptr.addr = alloca ptr, align 8
  store ptr %_ptr, ptr %_ptr.addr, align 8
  %0 = load ptr, ptr %_ptr.addr, align 8
  %1 = load ptr, ptr %0, align 8
  call void @glib_autoptr_clear_GSocketConnection(ptr noundef %1)
  ret void
}

; Function Attrs: nounwind sspstrong uwtable
define internal void @g_autoptr_cleanup_generic_gfree(ptr noundef %p) #0 {
entry:
  %p.addr = alloca ptr, align 8
  %pp = alloca ptr, align 8
  store ptr %p, ptr %p.addr, align 8
  %0 = load ptr, ptr %p.addr, align 8
  store ptr %0, ptr %pp, align 8
  %1 = load ptr, ptr %pp, align 8
  %2 = load ptr, ptr %1, align 8
  call void @g_free(ptr noundef %2)
  ret void
}

; Function Attrs: nounwind sspstrong uwtable
define internal zeroext i1 @dbus_display_add_client(i32 noundef %csock, ptr noundef %errp) #0 {
entry:
  %retval = alloca i1, align 1
  %csock.addr = alloca i32, align 4
  %errp.addr = alloca ptr, align 8
  %err = alloca ptr, align 8
  %socket = alloca ptr, align 8
  %conn = alloca ptr, align 8
  %guid = alloca ptr, align 8
  %cleanup.dest.slot = alloca i32, align 4
  store i32 %csock, ptr %csock.addr, align 4
  store ptr %errp, ptr %errp.addr, align 8
  store ptr null, ptr %err, align 8
  store ptr null, ptr %socket, align 8
  store ptr null, ptr %conn, align 8
  %call = call ptr @g_dbus_generate_guid()
  store ptr %call, ptr %guid, align 8
  %0 = load ptr, ptr @dbus_display, align 8
  %tobool = icmp ne ptr %0, null
  br i1 %tobool, label %if.end, label %if.then

if.then:                                          ; preds = %entry
  %1 = load ptr, ptr %errp.addr, align 8
  call void (ptr, ptr, i32, ptr, ptr, ...) @error_setg_internal(ptr noundef %1, ptr noundef @.str, i32 noundef 294, ptr noundef @__func__.dbus_display_add_client, ptr noundef @.str.1)
  store i1 false, ptr %retval, align 1
  store i32 1, ptr %cleanup.dest.slot, align 4
  br label %cleanup

if.end:                                           ; preds = %entry
  %2 = load ptr, ptr @dbus_display, align 8
  %add_client_cancellable = getelementptr inbounds %struct.DBusDisplay, ptr %2, i32 0, i32 10
  %3 = load ptr, ptr %add_client_cancellable, align 8
  %tobool1 = icmp ne ptr %3, null
  br i1 %tobool1, label %if.then2, label %if.end4

if.then2:                                         ; preds = %if.end
  %4 = load ptr, ptr @dbus_display, align 8
  %add_client_cancellable3 = getelementptr inbounds %struct.DBusDisplay, ptr %4, i32 0, i32 10
  %5 = load ptr, ptr %add_client_cancellable3, align 8
  call void @g_cancellable_cancel(ptr noundef %5)
  br label %if.end4

if.end4:                                          ; preds = %if.then2, %if.end
  %6 = load i32, ptr %csock.addr, align 4
  %call5 = call ptr @g_socket_new_from_fd(i32 noundef %6, ptr noundef %err)
  store ptr %call5, ptr %socket, align 8
  %7 = load ptr, ptr %socket, align 8
  %tobool6 = icmp ne ptr %7, null
  br i1 %tobool6, label %if.end9, label %if.then7

if.then7:                                         ; preds = %if.end4
  %8 = load ptr, ptr %errp.addr, align 8
  %9 = load ptr, ptr %err, align 8
  %message = getelementptr inbounds %struct._GError, ptr %9, i32 0, i32 2
  %10 = load ptr, ptr %message, align 8
  call void (ptr, ptr, i32, ptr, ptr, ...) @error_setg_internal(ptr noundef %8, ptr noundef @.str, i32 noundef 308, ptr noundef @__func__.dbus_display_add_client, ptr noundef @.str.2, ptr noundef %10)
  %11 = load i32, ptr %csock.addr, align 4
  %call8 = call i32 @close(i32 noundef %11)
  store i1 false, ptr %retval, align 1
  store i32 1, ptr %cleanup.dest.slot, align 4
  br label %cleanup

if.end9:                                          ; preds = %if.end4
  %12 = load ptr, ptr %socket, align 8
  %call10 = call ptr @g_socket_connection_factory_create_connection(ptr noundef %12)
  store ptr %call10, ptr %conn, align 8
  %call11 = call ptr @g_cancellable_new()
  %13 = load ptr, ptr @dbus_display, align 8
  %add_client_cancellable12 = getelementptr inbounds %struct.DBusDisplay, ptr %13, i32 0, i32 10
  store ptr %call11, ptr %add_client_cancellable12, align 8
  %14 = load ptr, ptr %conn, align 8
  %call13 = call i64 @g_io_stream_get_type() #5
  %call14 = call ptr @g_type_check_instance_cast(ptr noundef %14, i64 noundef %call13)
  %15 = load ptr, ptr %guid, align 8
  %16 = load ptr, ptr @dbus_display, align 8
  %add_client_cancellable15 = getelementptr inbounds %struct.DBusDisplay, ptr %16, i32 0, i32 10
  %17 = load ptr, ptr %add_client_cancellable15, align 8
  call void @g_dbus_connection_new(ptr noundef %call14, ptr noundef %15, i32 noundef 18, ptr noundef null, ptr noundef %17, ptr noundef @dbus_display_add_client_ready, ptr noundef null)
  store i1 true, ptr %retval, align 1
  store i32 1, ptr %cleanup.dest.slot, align 4
  br label %cleanup

cleanup:                                          ; preds = %if.end9, %if.then7, %if.then
  call void @g_autoptr_cleanup_generic_gfree(ptr noundef %guid)
  call void @glib_autoptr_cleanup_GSocketConnection(ptr noundef %conn)
  call void @glib_autoptr_cleanup_GSocket(ptr noundef %socket)
  call void @glib_autoptr_cleanup_GError(ptr noundef %err)
  %18 = load i1, ptr %retval, align 1
  ret i1 %18
}