; Function Attrs: nounwind sspstrong uwtable
define internal noundef zeroext i1 @dbus_display_add_client(i32 noundef %csock, ptr noundef %errp) #0 {
entry:
  %err = alloca ptr, align 8
  store ptr null, ptr %err, align 8
  %call = tail call ptr @g_dbus_generate_guid() #5
  %0 = load ptr, ptr @dbus_display, align 8
  %tobool.not = icmp eq ptr %0, null
  br i1 %tobool.not, label %if.then, label %if.end

if.then:                                          ; preds = %entry
  tail call void (ptr, ptr, i32, ptr, ptr, ...) @error_setg_internal(ptr noundef %errp, ptr noundef nonnull @.str, i32 noundef 294, ptr noundef nonnull @__func__.dbus_display_add_client, ptr noundef nonnull @.str.1) #5
  br label %glib_autoptr_cleanup_GSocketConnection.exit

if.end:                                           ; preds = %entry
  %add_client_cancellable = getelementptr inbounds nuw i8, ptr %0, i64 104
  %1 = load ptr, ptr %add_client_cancellable, align 8
  %tobool1.not = icmp eq ptr %1, null
  br i1 %tobool1.not, label %if.end4, label %if.then2

if.then2:                                         ; preds = %if.end
  tail call void @g_cancellable_cancel(ptr noundef nonnull %1) #5
  br label %if.end4

if.end4:                                          ; preds = %if.then2, %if.end
  %call5 = call ptr @g_socket_new_from_fd(i32 noundef %csock, ptr noundef nonnull %err) #5
  %tobool6.not = icmp eq ptr %call5, null
  br i1 %tobool6.not, label %if.then7, label %cleanup

if.then7:                                         ; preds = %if.end4
  %2 = load ptr, ptr %err, align 8
  %message = getelementptr inbounds nuw i8, ptr %2, i64 8
  %3 = load ptr, ptr %message, align 8
  call void (ptr, ptr, i32, ptr, ptr, ...) @error_setg_internal(ptr noundef %errp, ptr noundef nonnull @.str, i32 noundef 308, ptr noundef nonnull @__func__.dbus_display_add_client, ptr noundef nonnull @.str.2, ptr noundef %3) #5
  %call8 = call i32 @close(i32 noundef %csock) #5
  br label %glib_autoptr_cleanup_GSocketConnection.exit

cleanup:                                          ; preds = %if.end4
  %call10 = call ptr @g_socket_connection_factory_create_connection(ptr noundef nonnull %call5) #5
  %call11 = call ptr @g_cancellable_new() #5
  %4 = load ptr, ptr @dbus_display, align 8
  %add_client_cancellable12 = getelementptr inbounds nuw i8, ptr %4, i64 104
  store ptr %call11, ptr %add_client_cancellable12, align 8
  %call13 = tail call i64 @g_io_stream_get_type() #6
  %call14 = call ptr @g_type_check_instance_cast(ptr noundef %call10, i64 noundef %call13) #5
  %5 = load ptr, ptr @dbus_display, align 8
  %add_client_cancellable15 = getelementptr inbounds nuw i8, ptr %5, i64 104
  %6 = load ptr, ptr %add_client_cancellable15, align 8
  call void @g_dbus_connection_new(ptr noundef %call14, ptr noundef %call, i32 noundef 18, ptr noundef null, ptr noundef %6, ptr noundef nonnull @dbus_display_add_client_ready, ptr noundef null) #5
  call void @g_free(ptr noundef %call) #5
  %tobool.not.i.i = icmp eq ptr %call10, null
  br i1 %tobool.not.i.i, label %if.then.i.i5, label %if.then.i.i

if.then.i.i:                                      ; preds = %cleanup
  call void @g_object_unref(ptr noundef nonnull %call10) #5
  br label %if.then.i.i5

glib_autoptr_cleanup_GSocketConnection.exit:      ; preds = %if.then, %if.then7
  call void @g_free(ptr noundef %call) #5
  br label %glib_autoptr_cleanup_GSocket.exit

if.then.i.i5:                                     ; preds = %cleanup, %if.then.i.i
  call void @g_object_unref(ptr noundef nonnull %call5) #5
  br label %glib_autoptr_cleanup_GSocket.exit

glib_autoptr_cleanup_GSocket.exit:                ; preds = %glib_autoptr_cleanup_GSocketConnection.exit, %if.then.i.i5
  %retval.01318 = phi i1 [ false, %glib_autoptr_cleanup_GSocketConnection.exit ], [ true, %if.then.i.i5 ]
  %err.val = load ptr, ptr %err, align 8
  %tobool.not.i.i6 = icmp eq ptr %err.val, null
  br i1 %tobool.not.i.i6, label %glib_autoptr_cleanup_GError.exit, label %if.then.i.i7

if.then.i.i7:                                     ; preds = %glib_autoptr_cleanup_GSocket.exit
  call void @g_error_free(ptr noundef nonnull %err.val) #5
  br label %glib_autoptr_cleanup_GError.exit

glib_autoptr_cleanup_GError.exit:                 ; preds = %glib_autoptr_cleanup_GSocket.exit, %if.then.i.i7
  ret i1 %retval.01318
}